; Function Attrs: mustprogress uwtable
define void @_ZN3gmx17StringInputStreamC2ERKNS_8ArrayRefIKPKcEE(ptr noundef nonnull align 8 dereferenceable(48) %0, ptr nocapture noundef nonnull readonly align 8 dereferenceable(16) %1) unnamed_addr #1 align 2 personality ptr @__gxx_personality_v0 {
  %3 = alloca %"class.gmx::IdentityFormatter", align 1
  store ptr getelementptr inbounds inrange(-16, 32) ({ [6 x ptr] }, ptr @_ZTVN3gmx17StringInputStreamE, i64 0, i32 0, i64 2), ptr %0, align 8
  %4 = getelementptr inbounds i8, ptr %0, i64 8
  %.sroa.0.0.copyload.i = load ptr, ptr %1, align 8
  %5 = getelementptr inbounds i8, ptr %1, i64 8
  %.sroa.0.0.copyload.i7 = load ptr, ptr %5, align 8
  call void @llvm.lifetime.start.p0(i64 1, ptr nonnull %3)
  call void @_ZN3gmx13formatAndJoinINS_12ArrayRefIterIKPKcEENS_17IdentityFormatterEEENSt7__cxx1112basic_stringIcSt11char_traitsIcESaIcEEET_SD_S3_RKT0_(ptr dead_on_unwind nonnull writable sret(%"class.std::__cxx11::basic_string") align 8 %4, ptr %.sroa.0.0.copyload.i, ptr %.sroa.0.0.copyload.i7, ptr noundef nonnull @.str, ptr noundef nonnull align 1 dereferenceable(1) %3)
  call void @llvm.lifetime.end.p0(i64 1, ptr nonnull %3)
  %6 = getelementptr inbounds i8, ptr %0, i64 40
  store i64 0, ptr %6, align 8
  %7 = invoke noundef nonnull align 8 dereferenceable(32) ptr @_ZNSt7__cxx1112basic_stringIcSt11char_traitsIcESaIcEE6appendEPKc(ptr noundef nonnull align 8 dereferenceable(32) %4, ptr noundef nonnull @.str)
          to label %8 unwind label %9

8:                                                ; preds = %2
  ret void

9:                                                ; preds = %2
  %10 = landingpad { ptr, i32 }
          cleanup
  call void @_ZNSt7__cxx1112basic_stringIcSt11char_traitsIcESaIcEED1Ev(ptr noundef nonnull align 8 dereferenceable(32) %4) #10
  resume { ptr, i32 } %10
}